target datalayout = "e-m:e-p270:32:32-p271:32:32-p272:64:64-i64:64-i128:128-f80:128-n8:16:32:64-S128"
target triple = "x86_64-pc-linux-gnu"

@__pg_log_level = external global i32, align 4
@.str.162 = private unnamed_addr constant [9 x i8] c"setshell\00", align 1
@.str.189 = private unnamed_addr constant [2 x i8] c"r\00", align 1
@timer_exceeded = internal global i32 0, align 4
@.str.390 = private unnamed_addr constant [28 x i8] c"%s: undefined variable \22%s\22\00", align 1
@.str.425 = private unnamed_addr constant [30 x i8] c"%s: shell command is too long\00", align 1
@.str.426 = private unnamed_addr constant [35 x i8] c"%s: could not launch shell command\00", align 1
@.str.427 = private unnamed_addr constant [43 x i8] c"%s: could not read result of shell command\00", align 1
@.str.428 = private unnamed_addr constant [36 x i8] c"%s: could not run shell command: %m\00", align 1
@.str.429 = private unnamed_addr constant [52 x i8] c"%s: shell command must return an integer (not \22%s\22)\00", align 1
@.str.430 = private unnamed_addr constant [44 x i8] c"%s: shell parameter name: \22%s\22, value: \22%s\22\00", align 1

; Function Attrs: nounwind uwtable
define internal zeroext i1 @runShellCommand(ptr noundef %0, ptr noundef %1, ptr noundef %2, i32 noundef %3) #0 {
  %5 = alloca i1, align 1
  %6 = alloca ptr, align 8
  %7 = alloca ptr, align 8
  %8 = alloca ptr, align 8
  %9 = alloca i32, align 4
  %10 = alloca [256 x i8], align 16
  %11 = alloca i32, align 4
  %12 = alloca i32, align 4
  %13 = alloca ptr, align 8
  %14 = alloca [64 x i8], align 16
  %15 = alloca ptr, align 8
  %16 = alloca i32, align 4
  %17 = alloca ptr, align 8
  %18 = alloca i32, align 4
  %19 = alloca i32, align 4
  store ptr %0, ptr %6, align 8
  store ptr %1, ptr %7, align 8
  store ptr %2, ptr %8, align 8
  store i32 %3, ptr %9, align 4
  call void @llvm.lifetime.start.p0(i64 256, ptr %10) #14
  call void @llvm.lifetime.start.p0(i64 4, ptr %11) #14
  call void @llvm.lifetime.start.p0(i64 4, ptr %12) #14
  store i32 0, ptr %12, align 4
  call void @llvm.lifetime.start.p0(i64 8, ptr %13) #14
  call void @llvm.lifetime.start.p0(i64 64, ptr %14) #14
  call void @llvm.lifetime.start.p0(i64 8, ptr %15) #14
  call void @llvm.lifetime.start.p0(i64 4, ptr %16) #14
  store i32 0, ptr %11, align 4
  br label %20

20:                                               ; preds = %116, %4
  %21 = load i32, ptr %11, align 4
  %22 = load i32, ptr %9, align 4
  %23 = icmp slt i32 %21, %22
  br i1 %23, label %24, label %119

24:                                               ; preds = %20
  call void @llvm.lifetime.start.p0(i64 8, ptr %17) #14
  call void @llvm.lifetime.start.p0(i64 4, ptr %18) #14
  %25 = load ptr, ptr %8, align 8
  %26 = load i32, ptr %11, align 4
  %27 = sext i32 %26 to i64
  %28 = getelementptr inbounds ptr, ptr %25, i64 %27
  %29 = load ptr, ptr %28, align 8
  %30 = getelementptr inbounds i8, ptr %29, i64 0
  %31 = load i8, ptr %30, align 1
  %32 = sext i8 %31 to i32
  %33 = icmp ne i32 %32, 58
  br i1 %33, label %34, label %40

34:                                               ; preds = %24
  %35 = load ptr, ptr %8, align 8
  %36 = load i32, ptr %11, align 4
  %37 = sext i32 %36 to i64
  %38 = getelementptr inbounds ptr, ptr %35, i64 %37
  %39 = load ptr, ptr %38, align 8
  store ptr %39, ptr %17, align 8
  br label %78

40:                                               ; preds = %24
  %41 = load ptr, ptr %8, align 8
  %42 = load i32, ptr %11, align 4
  %43 = sext i32 %42 to i64
  %44 = getelementptr inbounds ptr, ptr %41, i64 %43
  %45 = load ptr, ptr %44, align 8
  %46 = getelementptr inbounds i8, ptr %45, i64 1
  %47 = load i8, ptr %46, align 1
  %48 = sext i8 %47 to i32
  %49 = icmp eq i32 %48, 58
  br i1 %49, label %50, label %57

50:                                               ; preds = %40
  %51 = load ptr, ptr %8, align 8
  %52 = load i32, ptr %11, align 4
  %53 = sext i32 %52 to i64
  %54 = getelementptr inbounds ptr, ptr %51, i64 %53
  %55 = load ptr, ptr %54, align 8
  %56 = getelementptr inbounds i8, ptr %55, i64 1
  store ptr %56, ptr %17, align 8
  br label %77

57:                                               ; preds = %40
  %58 = load ptr, ptr %6, align 8
  %59 = load ptr, ptr %8, align 8
  %60 = load i32, ptr %11, align 4
  %61 = sext i32 %60 to i64
  %62 = getelementptr inbounds ptr, ptr %59, i64 %61
  %63 = load ptr, ptr %62, align 8
  %64 = getelementptr inbounds i8, ptr %63, i64 1
  %65 = call ptr @getVariable(ptr noundef %58, ptr noundef %64)
  store ptr %65, ptr %17, align 8
  %66 = icmp eq ptr %65, null
  br i1 %66, label %67, label %76

67:                                               ; preds = %57
  %68 = load ptr, ptr %8, align 8
  %69 = getelementptr inbounds ptr, ptr %68, i64 0
  %70 = load ptr, ptr %69, align 8
  %71 = load ptr, ptr %8, align 8
  %72 = load i32, ptr %11, align 4
  %73 = sext i32 %72 to i64
  %74 = getelementptr inbounds ptr, ptr %71, i64 %73
  %75 = load ptr, ptr %74, align 8
  call void (i32, i32, ptr, ...) @pg_log_generic(i32 noundef 4, i32 noundef 0, ptr noundef @.str.390, ptr noundef %70, ptr noundef %75)
  store i1 false, ptr %5, align 1
  store i32 1, ptr %19, align 4
  br label %113

76:                                               ; preds = %57
  br label %77

77:                                               ; preds = %76, %50
  br label %78

78:                                               ; preds = %77, %34
  %79 = load ptr, ptr %17, align 8
  %80 = call i64 @strlen(ptr noundef %79) #17
  %81 = trunc i64 %80 to i32
  store i32 %81, ptr %18, align 4
  %82 = load i32, ptr %12, align 4
  %83 = load i32, ptr %18, align 4
  %84 = add i32 %82, %83
  %85 = load i32, ptr %11, align 4
  %86 = icmp sgt i32 %85, 0
  %87 = select i1 %86, i32 1, i32 0
  %88 = add i32 %84, %87
  %89 = icmp sge i32 %88, 255
  br i1 %89, label %90, label %94

90:                                               ; preds = %78
  %91 = load ptr, ptr %8, align 8
  %92 = getelementptr inbounds ptr, ptr %91, i64 0
  %93 = load ptr, ptr %92, align 8
  call void (i32, i32, ptr, ...) @pg_log_generic(i32 noundef 4, i32 noundef 0, ptr noundef @.str.425, ptr noundef %93)
  store i1 false, ptr %5, align 1
  store i32 1, ptr %19, align 4
  br label %113

94:                                               ; preds = %78
  %95 = load i32, ptr %11, align 4
  %96 = icmp sgt i32 %95, 0
  br i1 %96, label %97, label %102

97:                                               ; preds = %94
  %98 = load i32, ptr %12, align 4
  %99 = add i32 %98, 1
  store i32 %99, ptr %12, align 4
  %100 = sext i32 %98 to i64
  %101 = getelementptr inbounds [256 x i8], ptr %10, i64 0, i64 %100
  store i8 32, ptr %101, align 1
  br label %102

102:                                              ; preds = %97, %94
  %103 = getelementptr inbounds [256 x i8], ptr %10, i64 0, i64 0
  %104 = load i32, ptr %12, align 4
  %105 = sext i32 %104 to i64
  %106 = getelementptr inbounds i8, ptr %103, i64 %105
  %107 = load ptr, ptr %17, align 8
  %108 = load i32, ptr %18, align 4
  %109 = sext i32 %108 to i64
  call void @llvm.memcpy.p0.p0.i64(ptr align 1 %106, ptr align 1 %107, i64 %109, i1 false)
  %110 = load i32, ptr %18, align 4
  %111 = load i32, ptr %12, align 4
  %112 = add i32 %111, %110
  store i32 %112, ptr %12, align 4
  store i32 0, ptr %19, align 4
  br label %113

113:                                              ; preds = %102, %90, %67
  call void @llvm.lifetime.end.p0(i64 4, ptr %18) #14
  call void @llvm.lifetime.end.p0(i64 8, ptr %17) #14
  %114 = load i32, ptr %19, align 4
  switch i32 %114, label %239 [
    i32 0, label %115
  ]

115:                                              ; preds = %113
  br label %116

116:                                              ; preds = %115
  %117 = load i32, ptr %11, align 4
  %118 = add i32 %117, 1
  store i32 %118, ptr %11, align 4
  br label %20, !llvm.loop !67

119:                                              ; preds = %20
  %120 = load i32, ptr %12, align 4
  %121 = sext i32 %120 to i64
  %122 = getelementptr inbounds [256 x i8], ptr %10, i64 0, i64 %121
  store i8 0, ptr %122, align 1
  %123 = call i32 @fflush(ptr noundef null)
  %124 = load ptr, ptr %7, align 8
  %125 = icmp eq ptr %124, null
  br i1 %125, label %126, label %139

126:                                              ; preds = %119
  %127 = getelementptr inbounds [256 x i8], ptr %10, i64 0, i64 0
  %128 = call i32 @system(ptr noundef %127)
  %129 = icmp ne i32 %128, 0
  br i1 %129, label %130, label %138

130:                                              ; preds = %126
  %131 = load volatile i32, ptr @timer_exceeded, align 4
  %132 = icmp ne i32 %131, 0
  br i1 %132, label %137, label %133

133:                                              ; preds = %130
  %134 = load ptr, ptr %8, align 8
  %135 = getelementptr inbounds ptr, ptr %134, i64 0
  %136 = load ptr, ptr %135, align 8
  call void (i32, i32, ptr, ...) @pg_log_generic(i32 noundef 4, i32 noundef 0, ptr noundef @.str.426, ptr noundef %136)
  br label %137

137:                                              ; preds = %133, %130
  store i1 false, ptr %5, align 1
  store i32 1, ptr %19, align 4
  br label %239

138:                                              ; preds = %126
  store i1 true, ptr %5, align 1
  store i32 1, ptr %19, align 4
  br label %239

139:                                              ; preds = %119
  %140 = getelementptr inbounds [256 x i8], ptr %10, i64 0, i64 0
  %141 = call noalias ptr @popen(ptr noundef %140, ptr noundef @.str.189)
  store ptr %141, ptr %13, align 8
  %142 = icmp eq ptr %141, null
  br i1 %142, label %143, label %147

143:                                              ; preds = %139
  %144 = load ptr, ptr %8, align 8
  %145 = getelementptr inbounds ptr, ptr %144, i64 0
  %146 = load ptr, ptr %145, align 8
  call void (i32, i32, ptr, ...) @pg_log_generic(i32 noundef 4, i32 noundef 0, ptr noundef @.str.426, ptr noundef %146)
  store i1 false, ptr %5, align 1
  store i32 1, ptr %19, align 4
  br label %239

147:                                              ; preds = %139
  %148 = getelementptr inbounds [64 x i8], ptr %14, i64 0, i64 0
  %149 = load ptr, ptr %13, align 8
  %150 = call ptr @fgets(ptr noundef %148, i32 noundef 64, ptr noundef %149)
  %151 = icmp eq ptr %150, null
  br i1 %151, label %152, label %162

152:                                              ; preds = %147
  %153 = load volatile i32, ptr @timer_exceeded, align 4
  %154 = icmp ne i32 %153, 0
  br i1 %154, label %159, label %155

155:                                              ; preds = %152
  %156 = load ptr, ptr %8, align 8
  %157 = getelementptr inbounds ptr, ptr %156, i64 0
  %158 = load ptr, ptr %157, align 8
  call void (i32, i32, ptr, ...) @pg_log_generic(i32 noundef 4, i32 noundef 0, ptr noundef @.str.427, ptr noundef %158)
  br label %159

159:                                              ; preds = %155, %152
  %160 = load ptr, ptr %13, align 8
  %161 = call i32 @pclose(ptr noundef %160)
  store i1 false, ptr %5, align 1
  store i32 1, ptr %19, align 4
  br label %239

162:                                              ; preds = %147
  %163 = load ptr, ptr %13, align 8
  %164 = call i32 @pclose(ptr noundef %163)
  %165 = icmp slt i32 %164, 0
  br i1 %165, label %166, label %170

166:                                              ; preds = %162
  %167 = load ptr, ptr %8, align 8
  %168 = getelementptr inbounds ptr, ptr %167, i64 0
  %169 = load ptr, ptr %168, align 8
  call void (i32, i32, ptr, ...) @pg_log_generic(i32 noundef 4, i32 noundef 0, ptr noundef @.str.428, ptr noundef %169)
  store i1 false, ptr %5, align 1
  store i32 1, ptr %19, align 4
  br label %239

170:                                              ; preds = %162
  %171 = getelementptr inbounds [64 x i8], ptr %14, i64 0, i64 0
  %172 = call i64 @strtol(ptr noundef %171, ptr noundef %15, i32 noundef 10) #14
  %173 = trunc i64 %172 to i32
  store i32 %173, ptr %16, align 4
  br label %174

174:                                              ; preds = %193, %170
  %175 = load ptr, ptr %15, align 8
  %176 = load i8, ptr %175, align 1
  %177 = sext i8 %176 to i32
  %178 = icmp ne i32 %177, 0
  br i1 %178, label %179, label %191

179:                                              ; preds = %174
  %180 = call ptr @__ctype_b_loc() #15
  %181 = load ptr, ptr %180, align 8
  %182 = load ptr, ptr %15, align 8
  %183 = load i8, ptr %182, align 1
  %184 = zext i8 %183 to i32
  %185 = sext i32 %184 to i64
  %186 = getelementptr inbounds i16, ptr %181, i64 %185
  %187 = load i16, ptr %186, align 2
  %188 = zext i16 %187 to i32
  %189 = and i32 %188, 8192
  %190 = icmp ne i32 %189, 0
  br label %191

191:                                              ; preds = %179, %174
  %192 = phi i1 [ false, %174 ], [ %190, %179 ]
  br i1 %192, label %193, label %196

193:                                              ; preds = %191
  %194 = load ptr, ptr %15, align 8
  %195 = getelementptr inbounds nuw i8, ptr %194, i32 1
  store ptr %195, ptr %15, align 8
  br label %174, !llvm.loop !68

196:                                              ; preds = %191
  %197 = getelementptr inbounds [64 x i8], ptr %14, i64 0, i64 0
  %198 = load i8, ptr %197, align 16
  %199 = sext i8 %198 to i32
  %200 = icmp eq i32 %199, 0
  br i1 %200, label %206, label %201

201:                                              ; preds = %196
  %202 = load ptr, ptr %15, align 8
  %203 = load i8, ptr %202, align 1
  %204 = sext i8 %203 to i32
  %205 = icmp ne i32 %204, 0
  br i1 %205, label %206, label %211

206:                                              ; preds = %201, %196
  %207 = load ptr, ptr %8, align 8
  %208 = getelementptr inbounds ptr, ptr %207, i64 0
  %209 = load ptr, ptr %208, align 8
  %210 = getelementptr inbounds [64 x i8], ptr %14, i64 0, i64 0
  call void (i32, i32, ptr, ...) @pg_log_generic(i32 noundef 4, i32 noundef 0, ptr noundef @.str.429, ptr noundef %209, ptr noundef %210)
  store i1 false, ptr %5, align 1
  store i32 1, ptr %19, align 4
  br label %239

211:                                              ; preds = %201
  %212 = load ptr, ptr %6, align 8
  %213 = load ptr, ptr %7, align 8
  %214 = load i32, ptr %16, align 4
  %215 = sext i32 %214 to i64
  %216 = call zeroext i1 @putVariableInt(ptr noundef %212, ptr noundef @.str.162, ptr noundef %213, i64 noundef %215)
  br i1 %216, label %218, label %217

217:                                              ; preds = %211
  store i1 false, ptr %5, align 1
  store i32 1, ptr %19, align 4
  br label %239

218:                                              ; preds = %211
  br label %219

219:                                              ; preds = %218
  %220 = load i32, ptr @__pg_log_level, align 4
  %221 = icmp ule i32 %220, 1
  %222 = zext i1 %221 to i32
  %223 = icmp ne i32 %222, 0
  %224 = zext i1 %223 to i32
  %225 = sext i32 %224 to i64
  %226 = call i64 @llvm.expect.i64(i64 %225, i64 0)
  %227 = icmp ne i64 %226, 0
  br i1 %227, label %228, label %236

228:                                              ; preds = %219
  %229 = load ptr, ptr %8, align 8
  %230 = getelementptr inbounds ptr, ptr %229, i64 0
  %231 = load ptr, ptr %230, align 8
  %232 = load ptr, ptr %8, align 8
  %233 = getelementptr inbounds ptr, ptr %232, i64 1
  %234 = load ptr, ptr %233, align 8
  %235 = getelementptr inbounds [64 x i8], ptr %14, i64 0, i64 0
  call void (i32, i32, ptr, ...) @pg_log_generic(i32 noundef 1, i32 noundef 0, ptr noundef @.str.430, ptr noundef %231, ptr noundef %234, ptr noundef %235)
  br label %236

236:                                              ; preds = %228, %219
  br label %237

237:                                              ; preds = %236
  br label %238

238:                                              ; preds = %237
  store i1 true, ptr %5, align 1
  store i32 1, ptr %19, align 4
  br label %239

239:                                              ; preds = %238, %217, %206, %166, %159, %143, %138, %137, %113
  call void @llvm.lifetime.end.p0(i64 4, ptr %16) #14
  call void @llvm.lifetime.end.p0(i64 8, ptr %15) #14
  call void @llvm.lifetime.end.p0(i64 64, ptr %14) #14
  call void @llvm.lifetime.end.p0(i64 8, ptr %13) #14
  call void @llvm.lifetime.end.p0(i64 4, ptr %12) #14
  call void @llvm.lifetime.end.p0(i64 4, ptr %11) #14
  call void @llvm.lifetime.end.p0(i64 256, ptr %10) #14
  %240 = load i1, ptr %5, align 1
  ret i1 %240
}