; Function Attrs: nounwind uwtable
define internal fastcc noundef zeroext i1 @runShellCommand(ptr noundef captures(none) %0, ptr noundef %1, ptr noundef readonly captures(none) %2, i32 noundef %3) unnamed_addr #0 {
  %5 = alloca [256 x i8], align 16
  %6 = alloca [64 x i8], align 16
  %7 = alloca ptr, align 8
  call void @llvm.lifetime.start.p0(i64 256, ptr nonnull %5) #25
  call void @llvm.lifetime.start.p0(i64 64, ptr nonnull %6) #25
  call void @llvm.lifetime.start.p0(i64 8, ptr nonnull %7) #25
  %8 = icmp sgt i32 %3, 0
  br i1 %8, label %.lr.ph.preheader, label %._crit_edge

.lr.ph.preheader:                                 ; preds = %4
  %wide.trip.count = zext nneg i32 %3 to i64
  br label %.lr.ph

.lr.ph:                                           ; preds = %.lr.ph.preheader, %38
  %indvars.iv = phi i64 [ 0, %.lr.ph.preheader ], [ %indvars.iv.next, %38 ]
  %.04868 = phi i32 [ 0, %.lr.ph.preheader ], [ %42, %38 ]
  %9 = getelementptr inbounds nuw ptr, ptr %2, i64 %indvars.iv
  %10 = load ptr, ptr %9, align 8
  %11 = load i8, ptr %10, align 1
  %.not59 = icmp eq i8 %11, 58
  br i1 %.not59, label %12, label %23

12:                                               ; preds = %.lr.ph
  %13 = getelementptr inbounds nuw i8, ptr %10, i64 1
  %14 = load i8, ptr %13, align 1
  %15 = icmp eq i8 %14, 58
  br i1 %15, label %23, label %16

16:                                               ; preds = %12
  %17 = tail call fastcc ptr @getVariable(ptr noundef %0, ptr noundef nonnull %13)
  %18 = icmp eq ptr %17, null
  br i1 %18, label %19, label %23

19:                                               ; preds = %16
  %20 = getelementptr inbounds nuw ptr, ptr %2, i64 %indvars.iv
  %21 = load ptr, ptr %2, align 8
  %22 = load ptr, ptr %20, align 8
  tail call void (i32, i32, ptr, ...) @pg_log_generic(i32 noundef 4, i32 noundef 0, ptr noundef nonnull @.str.390, ptr noundef %21, ptr noundef %22) #25
  br label %.thread

23:                                               ; preds = %12, %.lr.ph, %16
  %.046 = phi ptr [ %17, %16 ], [ %10, %.lr.ph ], [ %13, %12 ]
  %24 = tail call i64 @strlen(ptr noundef nonnull dereferenceable(1) %.046) #27
  %25 = trunc i64 %24 to i32
  %26 = icmp ne i64 %indvars.iv, 0
  %27 = zext i1 %26 to i32
  %28 = add i32 %.04868, %27
  %29 = add i32 %28, %25
  %30 = icmp sgt i32 %29, 254
  br i1 %30, label %31, label %33

31:                                               ; preds = %23
  %32 = load ptr, ptr %2, align 8
  tail call void (i32, i32, ptr, ...) @pg_log_generic(i32 noundef 4, i32 noundef 0, ptr noundef nonnull @.str.425, ptr noundef %32) #25
  br label %.thread

33:                                               ; preds = %23
  br i1 %26, label %34, label %38

34:                                               ; preds = %33
  %35 = add i32 %.04868, 1
  %36 = sext i32 %.04868 to i64
  %37 = getelementptr inbounds [256 x i8], ptr %5, i64 0, i64 %36
  store i8 32, ptr %37, align 1
  br label %38

38:                                               ; preds = %34, %33
  %.250 = phi i32 [ %35, %34 ], [ %.04868, %33 ]
  %39 = sext i32 %.250 to i64
  %40 = getelementptr inbounds i8, ptr %5, i64 %39
  %sext60 = shl i64 %24, 32
  %41 = ashr exact i64 %sext60, 32
  call void @llvm.memcpy.p0.p0.i64(ptr nonnull align 1 %40, ptr nonnull align 1 %.046, i64 %41, i1 false)
  %42 = add i32 %.250, %25
  %indvars.iv.next = add nuw nsw i64 %indvars.iv, 1
  %exitcond.not = icmp eq i64 %indvars.iv.next, %wide.trip.count
  br i1 %exitcond.not, label %._crit_edge.loopexit, label %.lr.ph, !llvm.loop !75

._crit_edge.loopexit:                             ; preds = %38
  %43 = sext i32 %42 to i64
  br label %._crit_edge

._crit_edge:                                      ; preds = %._crit_edge.loopexit, %4
  %.048.lcssa = phi i64 [ 0, %4 ], [ %43, %._crit_edge.loopexit ]
  %44 = getelementptr inbounds [256 x i8], ptr %5, i64 0, i64 %.048.lcssa
  store i8 0, ptr %44, align 1
  %45 = tail call i32 @fflush(ptr noundef null)
  %46 = icmp eq ptr %1, null
  br i1 %46, label %47, label %53

47:                                               ; preds = %._crit_edge
  %48 = call i32 @system(ptr noundef nonnull %5) #25
  %.not57 = icmp eq i32 %48, 0
  br i1 %.not57, label %.thread, label %49

49:                                               ; preds = %47
  %50 = load volatile i32, ptr @timer_exceeded, align 4
  %.not58 = icmp eq i32 %50, 0
  br i1 %.not58, label %51, label %.thread

51:                                               ; preds = %49
  %52 = load ptr, ptr %2, align 8
  tail call void (i32, i32, ptr, ...) @pg_log_generic(i32 noundef 4, i32 noundef 0, ptr noundef nonnull @.str.426, ptr noundef %52) #25
  br label %.thread

53:                                               ; preds = %._crit_edge
  %54 = call noalias ptr @popen(ptr noundef nonnull %5, ptr noundef nonnull @.str.189)
  %55 = icmp eq ptr %54, null
  br i1 %55, label %56, label %58

56:                                               ; preds = %53
  %57 = load ptr, ptr %2, align 8
  tail call void (i32, i32, ptr, ...) @pg_log_generic(i32 noundef 4, i32 noundef 0, ptr noundef nonnull @.str.426, ptr noundef %57) #25
  br label %.thread

58:                                               ; preds = %53
  %59 = call ptr @fgets(ptr noundef nonnull %6, i32 noundef 64, ptr noundef nonnull %54)
  %60 = icmp eq ptr %59, null
  br i1 %60, label %61, label %67

61:                                               ; preds = %58
  %62 = load volatile i32, ptr @timer_exceeded, align 4
  %.not56 = icmp eq i32 %62, 0
  br i1 %.not56, label %63, label %65

63:                                               ; preds = %61
  %64 = load ptr, ptr %2, align 8
  call void (i32, i32, ptr, ...) @pg_log_generic(i32 noundef 4, i32 noundef 0, ptr noundef nonnull @.str.427, ptr noundef %64) #25
  br label %65

65:                                               ; preds = %63, %61
  %66 = call i32 @pclose(ptr noundef nonnull %54)
  br label %.thread

67:                                               ; preds = %58
  %68 = call i32 @pclose(ptr noundef nonnull %54)
  %69 = icmp slt i32 %68, 0
  br i1 %69, label %70, label %72

70:                                               ; preds = %67
  %71 = load ptr, ptr %2, align 8
  call void (i32, i32, ptr, ...) @pg_log_generic(i32 noundef 4, i32 noundef 0, ptr noundef nonnull @.str.428, ptr noundef %71) #25
  br label %.thread

72:                                               ; preds = %67
  %73 = call i64 @strtol(ptr noundef nonnull %6, ptr noundef nonnull %7, i32 noundef 10) #25
  %.promoted = load ptr, ptr %7, align 8
  %74 = load i8, ptr %.promoted, align 1
  %.not71 = icmp eq i8 %74, 0
  br i1 %.not71, label %.critedge, label %.lr.ph73

.lr.ph73:                                         ; preds = %72
  %75 = tail call ptr @__ctype_b_loc() #24
  %76 = load ptr, ptr %75, align 8
  br label %77

77:                                               ; preds = %.lr.ph73, %84
  %78 = phi i8 [ %74, %.lr.ph73 ], [ %86, %84 ]
  %79 = phi ptr [ %.promoted, %.lr.ph73 ], [ %85, %84 ]
  %80 = zext i8 %78 to i64
  %81 = getelementptr inbounds nuw i16, ptr %76, i64 %80
  %82 = load i16, ptr %81, align 2
  %83 = and i16 %82, 8192
  %.not54 = icmp eq i16 %83, 0
  br i1 %.not54, label %.thread63, label %84

84:                                               ; preds = %77
  %85 = getelementptr inbounds nuw i8, ptr %79, i64 1
  %86 = load i8, ptr %85, align 1
  %.not = icmp eq i8 %86, 0
  br i1 %.not, label %.critedge, label %77, !llvm.loop !76

.critedge:                                        ; preds = %84, %72
  %87 = load i8, ptr %6, align 16
  %88 = icmp eq i8 %87, 0
  br i1 %88, label %.thread63, label %90

.thread63:                                        ; preds = %77, %.critedge
  %89 = load ptr, ptr %2, align 8
  call void (i32, i32, ptr, ...) @pg_log_generic(i32 noundef 4, i32 noundef 0, ptr noundef nonnull @.str.429, ptr noundef %89, ptr noundef nonnull %6) #25
  br label %.thread

90:                                               ; preds = %.critedge
  %sext = shl i64 %73, 32
  %91 = ashr exact i64 %sext, 32
  %92 = call fastcc zeroext i1 @putVariableInt(ptr noundef %0, ptr noundef nonnull @.str.162, ptr noundef nonnull %1, i64 noundef %91)
  br i1 %92, label %93, label %.thread

93:                                               ; preds = %90
  %94 = load i32, ptr @__pg_log_level, align 4
  %95 = icmp ult i32 %94, 2
  br i1 %95, label %96, label %.thread, !prof !6

96:                                               ; preds = %93
  %97 = load ptr, ptr %2, align 8
  %98 = getelementptr inbounds nuw i8, ptr %2, i64 8
  %99 = load ptr, ptr %98, align 8
  call void (i32, i32, ptr, ...) @pg_log_generic(i32 noundef 1, i32 noundef 0, ptr noundef nonnull @.str.430, ptr noundef %97, ptr noundef %99, ptr noundef nonnull %6) #25
  br label %.thread

.thread:                                          ; preds = %19, %31, %93, %96, %90, %47, %49, %51, %.thread63, %70, %65, %56
  %.2 = phi i1 [ false, %56 ], [ false, %65 ], [ false, %70 ], [ false, %.thread63 ], [ false, %51 ], [ false, %49 ], [ true, %47 ], [ false, %90 ], [ true, %96 ], [ true, %93 ], [ false, %31 ], [ false, %19 ]
  call void @llvm.lifetime.end.p0(i64 8, ptr nonnull %7) #25
  call void @llvm.lifetime.end.p0(i64 64, ptr nonnull %6) #25
  call void @llvm.lifetime.end.p0(i64 256, ptr nonnull %5) #25
  ret i1 %.2
}